target datalayout = "e-m:e-p270:32:32-p271:32:32-p272:64:64-i64:64-i128:128-f80:128-n8:16:32:64-S128"
target triple = "x86_64-pc-linux-gnu"

; Function Attrs: nounwind sspstrong uwtable
define internal ptr @default_handler(i32 noundef %0) #1 {
  %2 = alloca i32, align 4
  %3 = alloca ptr, align 8
  store i32 %0, ptr %2, align 4, !tbaa !7
  call void @llvm.lifetime.start.p0(i64 8, ptr %3) #22
  %4 = load i32, ptr %2, align 4, !tbaa !7
  switch i32 %4, label %10 [
    i32 2, label %5
    i32 1, label %5
    i32 3, label %5
    i32 15, label %5
    i32 14, label %5
    i32 10, label %5
    i32 12, label %5
    i32 17, label %5
    i32 7, label %6
    i32 11, label %7
    i32 13, label %8
    i32 31, label %9
  ]

5:                                                ; preds = %1, %1, %1, %1, %1, %1, %1, %1
  store ptr @sighandler, ptr %3, align 8, !tbaa !61
  br label %11

6:                                                ; preds = %1
  store ptr @sigbus, ptr %3, align 8, !tbaa !61
  br label %11

7:                                                ; preds = %1
  store ptr @sigsegv, ptr %3, align 8, !tbaa !61
  br label %11

8:                                                ; preds = %1
  store ptr @sig_do_nothing, ptr %3, align 8, !tbaa !61
  br label %11

9:                                                ; preds = %1
  store ptr @sig_do_nothing, ptr %3, align 8, !tbaa !61
  br label %11

10:                                               ; preds = %1
  store ptr null, ptr %3, align 8, !tbaa !61
  br label %11

11:                                               ; preds = %10, %9, %8, %7, %6, %5
  %12 = load ptr, ptr %3, align 8, !tbaa !61
  call void @llvm.lifetime.end.p0(i64 8, ptr %3) #22
  ret ptr %12
}